; Function Attrs: nounwind uwtable
define hidden void @zim_SplFileObject_ftruncate(ptr nocapture noundef readonly %0, ptr nocapture noundef writeonly %1) #0 {
  %3 = alloca i64, align 8
  %4 = getelementptr inbounds i8, ptr %0, i64 32
  %5 = load ptr, ptr %4, align 8
  %6 = getelementptr inbounds i8, ptr %0, i64 44
  %7 = load i32, ptr %6, align 4
  %8 = call i32 (i32, ptr, ...) @zend_parse_parameters(i32 noundef %7, ptr noundef nonnull @.str.1, ptr noundef nonnull %3) #18
  %9 = icmp eq i32 %8, -1
  br i1 %9, label %10, label %13

10:                                               ; preds = %2
  %11 = load ptr, ptr getelementptr inbounds (%struct._zend_executor_globals, ptr @executor_globals, i64 0, i32 50), align 8
  %12 = icmp ne ptr %11, null
  call void @llvm.assume(i1 %12)
  br label %37

13:                                               ; preds = %2
  %14 = getelementptr inbounds i8, ptr %5, i64 -312
  %15 = load ptr, ptr %14, align 8
  %.not = icmp eq ptr %15, null
  br i1 %.not, label %16, label %19

16:                                               ; preds = %13
  call void (ptr, ptr, ...) @zend_throw_error(ptr noundef null, ptr noundef nonnull @.str) #18
  %17 = load ptr, ptr getelementptr inbounds (%struct._zend_executor_globals, ptr @executor_globals, i64 0, i32 50), align 8
  %18 = icmp ne ptr %17, null
  call void @llvm.assume(i1 %18)
  br label %37

19:                                               ; preds = %13
  %20 = call i32 @_php_stream_set_option(ptr noundef nonnull %15, i32 noundef 10, i32 noundef 0, ptr noundef null) #18
  %21 = icmp eq i32 %20, 0
  br i1 %21, label %30, label %22

22:                                               ; preds = %19
  %23 = load ptr, ptr @spl_ce_LogicException, align 8
  %24 = getelementptr inbounds i8, ptr %5, i64 -352
  %25 = load ptr, ptr %24, align 8
  %26 = getelementptr inbounds i8, ptr %25, i64 24
  %27 = call ptr (ptr, i64, ptr, ...) @zend_throw_exception_ex(ptr noundef %23, i64 noundef 0, ptr noundef nonnull @.str.32, ptr noundef nonnull %26) #18
  %28 = load ptr, ptr getelementptr inbounds (%struct._zend_executor_globals, ptr @executor_globals, i64 0, i32 50), align 8
  %29 = icmp ne ptr %28, null
  call void @llvm.assume(i1 %29)
  br label %37

30:                                               ; preds = %19
  %31 = load ptr, ptr %14, align 8
  %32 = load i64, ptr %3, align 8
  %33 = call i32 @_php_stream_truncate_set_size(ptr noundef %31, i64 noundef %32) #18
  %34 = icmp eq i32 %33, 0
  %35 = select i1 %34, i32 3, i32 2
  %36 = getelementptr inbounds i8, ptr %1, i64 8
  store i32 %35, ptr %36, align 8
  br label %37

37:                                               ; preds = %30, %22, %16, %10
  ret void
}